ARM GAS  /tmp/ccYBePJm.s 			page 1


   1              		.syntax unified
   2              		.cpu cortex-m4
   3              		.eabi_attribute 27, 1
   4              		.eabi_attribute 28, 1
   5              		.fpu fpv4-sp-d16
   6              		.eabi_attribute 20, 1
   7              		.eabi_attribute 21, 1
   8              		.eabi_attribute 23, 3
   9              		.eabi_attribute 24, 1
  10              		.eabi_attribute 25, 1
  11              		.eabi_attribute 26, 1
  12              		.eabi_attribute 30, 6
  13              		.eabi_attribute 34, 1
  14              		.eabi_attribute 18, 4
  15              		.thumb
  16              		.file	"usart.c"
  17              		.text
  18              	.Ltext0:
  19              		.cfi_sections	.debug_frame
  20              		.comm	huart1,112,4
  21              		.section	.rodata
  22              		.align	2
  23              	.LC0:
  24 0000 5372632F 		.ascii	"Src/usart.c\000"
  24      75736172 
  24      742E6300 
  25              		.section	.text.MX_USART1_UART_Init,"ax",%progbits
  26              		.align	2
  27              		.global	MX_USART1_UART_Init
  28              		.thumb
  29              		.thumb_func
  31              	MX_USART1_UART_Init:
  32              	.LFB123:
  33              		.file 1 "Src/usart.c"
   1:Src/usart.c   **** /**
   2:Src/usart.c   ****   ******************************************************************************
   3:Src/usart.c   ****   * File Name          : USART.c
   4:Src/usart.c   ****   * Description        : This file provides code for the configuration
   5:Src/usart.c   ****   *                      of the USART instances.
   6:Src/usart.c   ****   ******************************************************************************
   7:Src/usart.c   ****   ** This notice applies to any and all portions of this file
   8:Src/usart.c   ****   * that are not between comment pairs USER CODE BEGIN and
   9:Src/usart.c   ****   * USER CODE END. Other portions of this file, whether 
  10:Src/usart.c   ****   * inserted by the user or by software development tools
  11:Src/usart.c   ****   * are owned by their respective copyright owners.
  12:Src/usart.c   ****   *
  13:Src/usart.c   ****   * COPYRIGHT(c) 2019 STMicroelectronics
  14:Src/usart.c   ****   *
  15:Src/usart.c   ****   * Redistribution and use in source and binary forms, with or without modification,
  16:Src/usart.c   ****   * are permitted provided that the following conditions are met:
  17:Src/usart.c   ****   *   1. Redistributions of source code must retain the above copyright notice,
  18:Src/usart.c   ****   *      this list of conditions and the following disclaimer.
  19:Src/usart.c   ****   *   2. Redistributions in binary form must reproduce the above copyright notice,
  20:Src/usart.c   ****   *      this list of conditions and the following disclaimer in the documentation
  21:Src/usart.c   ****   *      and/or other materials provided with the distribution.
  22:Src/usart.c   ****   *   3. Neither the name of STMicroelectronics nor the names of its contributors
  23:Src/usart.c   ****   *      may be used to endorse or promote products derived from this software
ARM GAS  /tmp/ccYBePJm.s 			page 2


  24:Src/usart.c   ****   *      without specific prior written permission.
  25:Src/usart.c   ****   *
  26:Src/usart.c   ****   * THIS SOFTWARE IS PROVIDED BY THE COPYRIGHT HOLDERS AND CONTRIBUTORS "AS IS"
  27:Src/usart.c   ****   * AND ANY EXPRESS OR IMPLIED WARRANTIES, INCLUDING, BUT NOT LIMITED TO, THE
  28:Src/usart.c   ****   * IMPLIED WARRANTIES OF MERCHANTABILITY AND FITNESS FOR A PARTICULAR PURPOSE ARE
  29:Src/usart.c   ****   * DISCLAIMED. IN NO EVENT SHALL THE COPYRIGHT HOLDER OR CONTRIBUTORS BE LIABLE
  30:Src/usart.c   ****   * FOR ANY DIRECT, INDIRECT, INCIDENTAL, SPECIAL, EXEMPLARY, OR CONSEQUENTIAL
  31:Src/usart.c   ****   * DAMAGES (INCLUDING, BUT NOT LIMITED TO, PROCUREMENT OF SUBSTITUTE GOODS OR
  32:Src/usart.c   ****   * SERVICES; LOSS OF USE, DATA, OR PROFITS; OR BUSINESS INTERRUPTION) HOWEVER
  33:Src/usart.c   ****   * CAUSED AND ON ANY THEORY OF LIABILITY, WHETHER IN CONTRACT, STRICT LIABILITY,
  34:Src/usart.c   ****   * OR TORT (INCLUDING NEGLIGENCE OR OTHERWISE) ARISING IN ANY WAY OUT OF THE USE
  35:Src/usart.c   ****   * OF THIS SOFTWARE, EVEN IF ADVISED OF THE POSSIBILITY OF SUCH DAMAGE.
  36:Src/usart.c   ****   *
  37:Src/usart.c   ****   ******************************************************************************
  38:Src/usart.c   ****   */
  39:Src/usart.c   **** 
  40:Src/usart.c   **** /* Includes ------------------------------------------------------------------*/
  41:Src/usart.c   **** #include "usart.h"
  42:Src/usart.c   **** 
  43:Src/usart.c   **** #include "gpio.h"
  44:Src/usart.c   **** 
  45:Src/usart.c   **** /* USER CODE BEGIN 0 */
  46:Src/usart.c   **** 
  47:Src/usart.c   **** /* USER CODE END 0 */
  48:Src/usart.c   **** 
  49:Src/usart.c   **** UART_HandleTypeDef huart1;
  50:Src/usart.c   **** 
  51:Src/usart.c   **** /* USART1 init function */
  52:Src/usart.c   **** 
  53:Src/usart.c   **** void MX_USART1_UART_Init(void)
  54:Src/usart.c   **** {
  34              		.loc 1 54 0
  35              		.cfi_startproc
  36              		@ args = 0, pretend = 0, frame = 0
  37              		@ frame_needed = 1, uses_anonymous_args = 0
  38 0000 80B5     		push	{r7, lr}
  39              	.LCFI0:
  40              		.cfi_def_cfa_offset 8
  41              		.cfi_offset 7, -8
  42              		.cfi_offset 14, -4
  43 0002 00AF     		add	r7, sp, #0
  44              	.LCFI1:
  45              		.cfi_def_cfa_register 7
  55:Src/usart.c   **** 
  56:Src/usart.c   ****   huart1.Instance = USART1;
  46              		.loc 1 56 0
  47 0004 144B     		ldr	r3, .L3
  48 0006 154A     		ldr	r2, .L3+4
  49 0008 1A60     		str	r2, [r3]
  57:Src/usart.c   ****   huart1.Init.BaudRate = 38400;
  50              		.loc 1 57 0
  51 000a 134B     		ldr	r3, .L3
  52 000c 4FF41642 		mov	r2, #38400
  53 0010 5A60     		str	r2, [r3, #4]
  58:Src/usart.c   ****   huart1.Init.WordLength = UART_WORDLENGTH_8B;
  54              		.loc 1 58 0
  55 0012 114B     		ldr	r3, .L3
ARM GAS  /tmp/ccYBePJm.s 			page 3


  56 0014 0022     		movs	r2, #0
  57 0016 9A60     		str	r2, [r3, #8]
  59:Src/usart.c   ****   huart1.Init.StopBits = UART_STOPBITS_1;
  58              		.loc 1 59 0
  59 0018 0F4B     		ldr	r3, .L3
  60 001a 0022     		movs	r2, #0
  61 001c DA60     		str	r2, [r3, #12]
  60:Src/usart.c   ****   huart1.Init.Parity = UART_PARITY_NONE;
  62              		.loc 1 60 0
  63 001e 0E4B     		ldr	r3, .L3
  64 0020 0022     		movs	r2, #0
  65 0022 1A61     		str	r2, [r3, #16]
  61:Src/usart.c   ****   huart1.Init.Mode = UART_MODE_TX_RX;
  66              		.loc 1 61 0
  67 0024 0C4B     		ldr	r3, .L3
  68 0026 0C22     		movs	r2, #12
  69 0028 5A61     		str	r2, [r3, #20]
  62:Src/usart.c   ****   huart1.Init.HwFlowCtl = UART_HWCONTROL_NONE;
  70              		.loc 1 62 0
  71 002a 0B4B     		ldr	r3, .L3
  72 002c 0022     		movs	r2, #0
  73 002e 9A61     		str	r2, [r3, #24]
  63:Src/usart.c   ****   huart1.Init.OverSampling = UART_OVERSAMPLING_16;
  74              		.loc 1 63 0
  75 0030 094B     		ldr	r3, .L3
  76 0032 0022     		movs	r2, #0
  77 0034 DA61     		str	r2, [r3, #28]
  64:Src/usart.c   ****   huart1.Init.OneBitSampling = UART_ONE_BIT_SAMPLE_DISABLE;
  78              		.loc 1 64 0
  79 0036 084B     		ldr	r3, .L3
  80 0038 0022     		movs	r2, #0
  81 003a 1A62     		str	r2, [r3, #32]
  65:Src/usart.c   ****   huart1.AdvancedInit.AdvFeatureInit = UART_ADVFEATURE_NO_INIT;
  82              		.loc 1 65 0
  83 003c 064B     		ldr	r3, .L3
  84 003e 0022     		movs	r2, #0
  85 0040 5A62     		str	r2, [r3, #36]
  66:Src/usart.c   ****   if (HAL_UART_Init(&huart1) != HAL_OK)
  86              		.loc 1 66 0
  87 0042 0548     		ldr	r0, .L3
  88 0044 FFF7FEFF 		bl	HAL_UART_Init
  89 0048 0346     		mov	r3, r0
  90 004a 002B     		cmp	r3, #0
  91 004c 03D0     		beq	.L1
  67:Src/usart.c   ****   {
  68:Src/usart.c   ****     _Error_Handler(__FILE__, __LINE__);
  92              		.loc 1 68 0
  93 004e 0448     		ldr	r0, .L3+8
  94 0050 4421     		movs	r1, #68
  95 0052 FFF7FEFF 		bl	_Error_Handler
  96              	.L1:
  69:Src/usart.c   ****   }
  70:Src/usart.c   **** 
  71:Src/usart.c   **** }
  97              		.loc 1 71 0
  98 0056 80BD     		pop	{r7, pc}
  99              	.L4:
ARM GAS  /tmp/ccYBePJm.s 			page 4


 100              		.align	2
 101              	.L3:
 102 0058 00000000 		.word	huart1
 103 005c 00380140 		.word	1073821696
 104 0060 00000000 		.word	.LC0
 105              		.cfi_endproc
 106              	.LFE123:
 108              		.section	.text.HAL_UART_MspInit,"ax",%progbits
 109              		.align	2
 110              		.global	HAL_UART_MspInit
 111              		.thumb
 112              		.thumb_func
 114              	HAL_UART_MspInit:
 115              	.LFB124:
  72:Src/usart.c   **** 
  73:Src/usart.c   **** void HAL_UART_MspInit(UART_HandleTypeDef* uartHandle)
  74:Src/usart.c   **** {
 116              		.loc 1 74 0
 117              		.cfi_startproc
 118              		@ args = 0, pretend = 0, frame = 32
 119              		@ frame_needed = 1, uses_anonymous_args = 0
 120 0000 80B5     		push	{r7, lr}
 121              	.LCFI2:
 122              		.cfi_def_cfa_offset 8
 123              		.cfi_offset 7, -8
 124              		.cfi_offset 14, -4
 125 0002 88B0     		sub	sp, sp, #32
 126              	.LCFI3:
 127              		.cfi_def_cfa_offset 40
 128 0004 00AF     		add	r7, sp, #0
 129              	.LCFI4:
 130              		.cfi_def_cfa_register 7
 131 0006 7860     		str	r0, [r7, #4]
  75:Src/usart.c   **** 
  76:Src/usart.c   ****   GPIO_InitTypeDef GPIO_InitStruct;
  77:Src/usart.c   ****   if(uartHandle->Instance==USART1)
 132              		.loc 1 77 0
 133 0008 7B68     		ldr	r3, [r7, #4]
 134 000a 1B68     		ldr	r3, [r3]
 135 000c 114A     		ldr	r2, .L7
 136 000e 9342     		cmp	r3, r2
 137 0010 1DD1     		bne	.L5
 138              	.LBB2:
  78:Src/usart.c   ****   {
  79:Src/usart.c   ****   /* USER CODE BEGIN USART1_MspInit 0 */
  80:Src/usart.c   **** 
  81:Src/usart.c   ****   /* USER CODE END USART1_MspInit 0 */
  82:Src/usart.c   ****     /* USART1 clock enable */
  83:Src/usart.c   ****     __HAL_RCC_USART1_CLK_ENABLE();
 139              		.loc 1 83 0
 140 0012 114A     		ldr	r2, .L7+4
 141 0014 104B     		ldr	r3, .L7+4
 142 0016 9B69     		ldr	r3, [r3, #24]
 143 0018 43F48043 		orr	r3, r3, #16384
 144 001c 9361     		str	r3, [r2, #24]
 145 001e 0E4B     		ldr	r3, .L7+4
 146 0020 9B69     		ldr	r3, [r3, #24]
ARM GAS  /tmp/ccYBePJm.s 			page 5


 147 0022 03F48043 		and	r3, r3, #16384
 148 0026 BB60     		str	r3, [r7, #8]
 149 0028 BB68     		ldr	r3, [r7, #8]
 150              	.LBE2:
  84:Src/usart.c   ****   
  85:Src/usart.c   ****     /**USART1 GPIO Configuration    
  86:Src/usart.c   ****     PA9     ------> USART1_TX
  87:Src/usart.c   ****     PA10     ------> USART1_RX 
  88:Src/usart.c   ****     */
  89:Src/usart.c   ****     GPIO_InitStruct.Pin = USART1_TX_DEBUG_Pin|USART1_RX_DEBUG_Pin;
 151              		.loc 1 89 0
 152 002a 4FF4C063 		mov	r3, #1536
 153 002e FB60     		str	r3, [r7, #12]
  90:Src/usart.c   ****     GPIO_InitStruct.Mode = GPIO_MODE_AF_PP;
 154              		.loc 1 90 0
 155 0030 0223     		movs	r3, #2
 156 0032 3B61     		str	r3, [r7, #16]
  91:Src/usart.c   ****     GPIO_InitStruct.Pull = GPIO_NOPULL;
 157              		.loc 1 91 0
 158 0034 0023     		movs	r3, #0
 159 0036 7B61     		str	r3, [r7, #20]
  92:Src/usart.c   ****     GPIO_InitStruct.Speed = GPIO_SPEED_FREQ_HIGH;
 160              		.loc 1 92 0
 161 0038 0323     		movs	r3, #3
 162 003a BB61     		str	r3, [r7, #24]
  93:Src/usart.c   ****     GPIO_InitStruct.Alternate = GPIO_AF7_USART1;
 163              		.loc 1 93 0
 164 003c 0723     		movs	r3, #7
 165 003e FB61     		str	r3, [r7, #28]
  94:Src/usart.c   ****     HAL_GPIO_Init(GPIOA, &GPIO_InitStruct);
 166              		.loc 1 94 0
 167 0040 07F10C03 		add	r3, r7, #12
 168 0044 4FF09040 		mov	r0, #1207959552
 169 0048 1946     		mov	r1, r3
 170 004a FFF7FEFF 		bl	HAL_GPIO_Init
 171              	.L5:
  95:Src/usart.c   **** 
  96:Src/usart.c   ****   /* USER CODE BEGIN USART1_MspInit 1 */
  97:Src/usart.c   **** 
  98:Src/usart.c   ****   /* USER CODE END USART1_MspInit 1 */
  99:Src/usart.c   ****   }
 100:Src/usart.c   **** }
 172              		.loc 1 100 0
 173 004e 2037     		adds	r7, r7, #32
 174              	.LCFI5:
 175              		.cfi_def_cfa_offset 8
 176 0050 BD46     		mov	sp, r7
 177              	.LCFI6:
 178              		.cfi_def_cfa_register 13
 179              		@ sp needed
 180 0052 80BD     		pop	{r7, pc}
 181              	.L8:
 182              		.align	2
 183              	.L7:
 184 0054 00380140 		.word	1073821696
 185 0058 00100240 		.word	1073876992
 186              		.cfi_endproc
ARM GAS  /tmp/ccYBePJm.s 			page 6


 187              	.LFE124:
 189              		.section	.text.HAL_UART_MspDeInit,"ax",%progbits
 190              		.align	2
 191              		.global	HAL_UART_MspDeInit
 192              		.thumb
 193              		.thumb_func
 195              	HAL_UART_MspDeInit:
 196              	.LFB125:
 101:Src/usart.c   **** 
 102:Src/usart.c   **** void HAL_UART_MspDeInit(UART_HandleTypeDef* uartHandle)
 103:Src/usart.c   **** {
 197              		.loc 1 103 0
 198              		.cfi_startproc
 199              		@ args = 0, pretend = 0, frame = 8
 200              		@ frame_needed = 1, uses_anonymous_args = 0
 201 0000 80B5     		push	{r7, lr}
 202              	.LCFI7:
 203              		.cfi_def_cfa_offset 8
 204              		.cfi_offset 7, -8
 205              		.cfi_offset 14, -4
 206 0002 82B0     		sub	sp, sp, #8
 207              	.LCFI8:
 208              		.cfi_def_cfa_offset 16
 209 0004 00AF     		add	r7, sp, #0
 210              	.LCFI9:
 211              		.cfi_def_cfa_register 7
 212 0006 7860     		str	r0, [r7, #4]
 104:Src/usart.c   **** 
 105:Src/usart.c   ****   if(uartHandle->Instance==USART1)
 213              		.loc 1 105 0
 214 0008 7B68     		ldr	r3, [r7, #4]
 215 000a 1B68     		ldr	r3, [r3]
 216 000c 084A     		ldr	r2, .L11
 217 000e 9342     		cmp	r3, r2
 218 0010 0BD1     		bne	.L9
 106:Src/usart.c   ****   {
 107:Src/usart.c   ****   /* USER CODE BEGIN USART1_MspDeInit 0 */
 108:Src/usart.c   **** 
 109:Src/usart.c   ****   /* USER CODE END USART1_MspDeInit 0 */
 110:Src/usart.c   ****     /* Peripheral clock disable */
 111:Src/usart.c   ****     __HAL_RCC_USART1_CLK_DISABLE();
 219              		.loc 1 111 0
 220 0012 084A     		ldr	r2, .L11+4
 221 0014 074B     		ldr	r3, .L11+4
 222 0016 9B69     		ldr	r3, [r3, #24]
 223 0018 23F48043 		bic	r3, r3, #16384
 224 001c 9361     		str	r3, [r2, #24]
 112:Src/usart.c   ****   
 113:Src/usart.c   ****     /**USART1 GPIO Configuration    
 114:Src/usart.c   ****     PA9     ------> USART1_TX
 115:Src/usart.c   ****     PA10     ------> USART1_RX 
 116:Src/usart.c   ****     */
 117:Src/usart.c   ****     HAL_GPIO_DeInit(GPIOA, USART1_TX_DEBUG_Pin|USART1_RX_DEBUG_Pin);
 225              		.loc 1 117 0
 226 001e 4FF09040 		mov	r0, #1207959552
 227 0022 4FF4C061 		mov	r1, #1536
 228 0026 FFF7FEFF 		bl	HAL_GPIO_DeInit
ARM GAS  /tmp/ccYBePJm.s 			page 7


 229              	.L9:
 118:Src/usart.c   **** 
 119:Src/usart.c   ****   /* USER CODE BEGIN USART1_MspDeInit 1 */
 120:Src/usart.c   **** 
 121:Src/usart.c   ****   /* USER CODE END USART1_MspDeInit 1 */
 122:Src/usart.c   ****   }
 123:Src/usart.c   **** } 
 230              		.loc 1 123 0
 231 002a 0837     		adds	r7, r7, #8
 232              	.LCFI10:
 233              		.cfi_def_cfa_offset 8
 234 002c BD46     		mov	sp, r7
 235              	.LCFI11:
 236              		.cfi_def_cfa_register 13
 237              		@ sp needed
 238 002e 80BD     		pop	{r7, pc}
 239              	.L12:
 240              		.align	2
 241              	.L11:
 242 0030 00380140 		.word	1073821696
 243 0034 00100240 		.word	1073876992
 244              		.cfi_endproc
 245              	.LFE125:
 247              		.text
 248              	.Letext0:
 249              		.file 2 "/usr/include/newlib/machine/_default_types.h"
 250              		.file 3 "/usr/include/newlib/sys/_stdint.h"
 251              		.file 4 "Drivers/CMSIS/Device/ST/STM32F3xx/Include/stm32f303x8.h"
 252              		.file 5 "Drivers/STM32F3xx_HAL_Driver/Inc/stm32f3xx_hal_def.h"
 253              		.file 6 "Drivers/STM32F3xx_HAL_Driver/Inc/stm32f3xx_hal_gpio.h"
 254              		.file 7 "Drivers/STM32F3xx_HAL_Driver/Inc/stm32f3xx_hal_dma.h"
 255              		.file 8 "Drivers/STM32F3xx_HAL_Driver/Inc/stm32f3xx_hal_uart.h"
 256              		.file 9 "Drivers/CMSIS/Include/core_cm4.h"
ARM GAS  /tmp/ccYBePJm.s 			page 8

