ARM GAS  /tmp/ccxilnv6.s 			page 1


   1              		.syntax unified
   2              		.cpu cortex-m4
   3              		.eabi_attribute 27, 1
   4              		.eabi_attribute 28, 1
   5              		.fpu fpv4-sp-d16
   6              		.eabi_attribute 20, 1
   7              		.eabi_attribute 21, 1
   8              		.eabi_attribute 23, 3
   9              		.eabi_attribute 24, 1
  10              		.eabi_attribute 25, 1
  11              		.eabi_attribute 26, 1
  12              		.eabi_attribute 30, 6
  13              		.eabi_attribute 34, 1
  14              		.eabi_attribute 18, 4
  15              		.thumb
  16              		.file	"vl53l0x_platform.c"
  17              		.text
  18              	.Ltext0:
  19              		.cfi_sections	.debug_frame
  20              		.comm	_I2CBuffer,64,4
  21              		.section	.text._I2CWrite,"ax",%progbits
  22              		.align	2
  23              		.global	_I2CWrite
  24              		.thumb
  25              		.thumb_func
  27              	_I2CWrite:
  28              	.LFB123:
  29              		.file 1 "Drivers/VL53L0X/Platform/vl53l0x_platform.c"
   1:Drivers/VL53L0X/Platform/vl53l0x_platform.c **** //?????#include "hal.h"
   2:Drivers/VL53L0X/Platform/vl53l0x_platform.c **** #include "vl53l0x_platform.h"
   3:Drivers/VL53L0X/Platform/vl53l0x_platform.c **** #include "vl53l0x_api.h"
   4:Drivers/VL53L0X/Platform/vl53l0x_platform.c **** 
   5:Drivers/VL53L0X/Platform/vl53l0x_platform.c **** #include "stm32f3xx_hal.h"
   6:Drivers/VL53L0X/Platform/vl53l0x_platform.c **** #include <string.h>
   7:Drivers/VL53L0X/Platform/vl53l0x_platform.c **** 
   8:Drivers/VL53L0X/Platform/vl53l0x_platform.c **** #define I2C_TIME_OUT_BASE   10
   9:Drivers/VL53L0X/Platform/vl53l0x_platform.c **** #define I2C_TIME_OUT_BYTE   1
  10:Drivers/VL53L0X/Platform/vl53l0x_platform.c **** #define VL53L0X_OsDelay(...) HAL_Delay(2)
  11:Drivers/VL53L0X/Platform/vl53l0x_platform.c **** 
  12:Drivers/VL53L0X/Platform/vl53l0x_platform.c **** 
  13:Drivers/VL53L0X/Platform/vl53l0x_platform.c **** #ifndef HAL_I2C_MODULE_ENABLED
  14:Drivers/VL53L0X/Platform/vl53l0x_platform.c **** #warning "HAL I2C module must be enable "
  15:Drivers/VL53L0X/Platform/vl53l0x_platform.c **** #endif
  16:Drivers/VL53L0X/Platform/vl53l0x_platform.c **** //extern I2C_HandleTypeDef hi2c1;
  17:Drivers/VL53L0X/Platform/vl53l0x_platform.c **** //#define VL53L0X_pI2cHandle    (&hi2c1)
  18:Drivers/VL53L0X/Platform/vl53l0x_platform.c **** 
  19:Drivers/VL53L0X/Platform/vl53l0x_platform.c **** /* when not customized by application define dummy one */
  20:Drivers/VL53L0X/Platform/vl53l0x_platform.c **** #ifndef VL53L0X_GetI2cBus
  21:Drivers/VL53L0X/Platform/vl53l0x_platform.c **** /** This macro can be overloaded by user to enforce i2c sharing in RTOS context
  22:Drivers/VL53L0X/Platform/vl53l0x_platform.c ****  */
  23:Drivers/VL53L0X/Platform/vl53l0x_platform.c **** #   define VL53L0X_GetI2cBus(...) (void)0
  24:Drivers/VL53L0X/Platform/vl53l0x_platform.c **** #endif
  25:Drivers/VL53L0X/Platform/vl53l0x_platform.c **** 
  26:Drivers/VL53L0X/Platform/vl53l0x_platform.c **** #ifndef VL53L0X_PutI2cBus
  27:Drivers/VL53L0X/Platform/vl53l0x_platform.c **** /** This macro can be overloaded by user to enforce i2c sharing in RTOS context
  28:Drivers/VL53L0X/Platform/vl53l0x_platform.c ****  */
  29:Drivers/VL53L0X/Platform/vl53l0x_platform.c **** #   define VL53L0X_PutI2cBus(...) (void)0
ARM GAS  /tmp/ccxilnv6.s 			page 2


  30:Drivers/VL53L0X/Platform/vl53l0x_platform.c **** #endif
  31:Drivers/VL53L0X/Platform/vl53l0x_platform.c **** 
  32:Drivers/VL53L0X/Platform/vl53l0x_platform.c **** #ifndef VL53L0X_OsDelay
  33:Drivers/VL53L0X/Platform/vl53l0x_platform.c **** #   define  VL53L0X_OsDelay(...) (void)0
  34:Drivers/VL53L0X/Platform/vl53l0x_platform.c **** #endif
  35:Drivers/VL53L0X/Platform/vl53l0x_platform.c **** 
  36:Drivers/VL53L0X/Platform/vl53l0x_platform.c **** 
  37:Drivers/VL53L0X/Platform/vl53l0x_platform.c **** uint8_t _I2CBuffer[64];
  38:Drivers/VL53L0X/Platform/vl53l0x_platform.c **** int _I2CWrite(VL53L0X_DEV Dev, uint8_t *pdata, uint32_t count) {
  30              		.loc 1 38 0
  31              		.cfi_startproc
  32              		@ args = 0, pretend = 0, frame = 24
  33              		@ frame_needed = 1, uses_anonymous_args = 0
  34 0000 90B5     		push	{r4, r7, lr}
  35              	.LCFI0:
  36              		.cfi_def_cfa_offset 12
  37              		.cfi_offset 4, -12
  38              		.cfi_offset 7, -8
  39              		.cfi_offset 14, -4
  40 0002 89B0     		sub	sp, sp, #36
  41              	.LCFI1:
  42              		.cfi_def_cfa_offset 48
  43 0004 02AF     		add	r7, sp, #8
  44              	.LCFI2:
  45              		.cfi_def_cfa 7, 40
  46 0006 F860     		str	r0, [r7, #12]
  47 0008 B960     		str	r1, [r7, #8]
  48 000a 7A60     		str	r2, [r7, #4]
  39:Drivers/VL53L0X/Platform/vl53l0x_platform.c ****     int status;
  40:Drivers/VL53L0X/Platform/vl53l0x_platform.c ****     int i2c_time_out = I2C_TIME_OUT_BASE+ count* I2C_TIME_OUT_BYTE;
  49              		.loc 1 40 0
  50 000c 7B68     		ldr	r3, [r7, #4]
  51 000e 0A33     		adds	r3, r3, #10
  52 0010 7B61     		str	r3, [r7, #20]
  41:Drivers/VL53L0X/Platform/vl53l0x_platform.c **** 
  42:Drivers/VL53L0X/Platform/vl53l0x_platform.c ****     status = HAL_I2C_Master_Transmit(Dev->I2cHandle, Dev->I2cDevAddr, pdata, count, i2c_time_out);
  53              		.loc 1 42 0
  54 0012 FB68     		ldr	r3, [r7, #12]
  55 0014 D3F85C11 		ldr	r1, [r3, #348]
  56 0018 FB68     		ldr	r3, [r7, #12]
  57 001a 93F86031 		ldrb	r3, [r3, #352]	@ zero_extendqisi2
  58 001e 9AB2     		uxth	r2, r3
  59 0020 7B68     		ldr	r3, [r7, #4]
  60 0022 9CB2     		uxth	r4, r3
  61 0024 7B69     		ldr	r3, [r7, #20]
  62 0026 0093     		str	r3, [sp]
  63 0028 0846     		mov	r0, r1
  64 002a 1146     		mov	r1, r2
  65 002c BA68     		ldr	r2, [r7, #8]
  66 002e 2346     		mov	r3, r4
  67 0030 FFF7FEFF 		bl	HAL_I2C_Master_Transmit
  68 0034 0346     		mov	r3, r0
  69 0036 3B61     		str	r3, [r7, #16]
  43:Drivers/VL53L0X/Platform/vl53l0x_platform.c ****     if (status) {
  44:Drivers/VL53L0X/Platform/vl53l0x_platform.c ****         //VL6180x_ErrLog("I2C error 0x%x %d len", dev->I2cAddr, len);
  45:Drivers/VL53L0X/Platform/vl53l0x_platform.c ****         //XNUCLEO6180XA1_I2C1_Init(&hi2c1);
  46:Drivers/VL53L0X/Platform/vl53l0x_platform.c ****     }
ARM GAS  /tmp/ccxilnv6.s 			page 3


  47:Drivers/VL53L0X/Platform/vl53l0x_platform.c ****     return status;
  70              		.loc 1 47 0
  71 0038 3B69     		ldr	r3, [r7, #16]
  48:Drivers/VL53L0X/Platform/vl53l0x_platform.c **** }
  72              		.loc 1 48 0
  73 003a 1846     		mov	r0, r3
  74 003c 1C37     		adds	r7, r7, #28
  75              	.LCFI3:
  76              		.cfi_def_cfa_offset 12
  77 003e BD46     		mov	sp, r7
  78              	.LCFI4:
  79              		.cfi_def_cfa_register 13
  80              		@ sp needed
  81 0040 90BD     		pop	{r4, r7, pc}
  82              		.cfi_endproc
  83              	.LFE123:
  85 0042 00BF     		.section	.text._I2CRead,"ax",%progbits
  86              		.align	2
  87              		.global	_I2CRead
  88              		.thumb
  89              		.thumb_func
  91              	_I2CRead:
  92              	.LFB124:
  49:Drivers/VL53L0X/Platform/vl53l0x_platform.c **** 
  50:Drivers/VL53L0X/Platform/vl53l0x_platform.c **** int _I2CRead(VL53L0X_DEV Dev, uint8_t *pdata, uint32_t count) {
  93              		.loc 1 50 0
  94              		.cfi_startproc
  95              		@ args = 0, pretend = 0, frame = 24
  96              		@ frame_needed = 1, uses_anonymous_args = 0
  97 0000 90B5     		push	{r4, r7, lr}
  98              	.LCFI5:
  99              		.cfi_def_cfa_offset 12
 100              		.cfi_offset 4, -12
 101              		.cfi_offset 7, -8
 102              		.cfi_offset 14, -4
 103 0002 89B0     		sub	sp, sp, #36
 104              	.LCFI6:
 105              		.cfi_def_cfa_offset 48
 106 0004 02AF     		add	r7, sp, #8
 107              	.LCFI7:
 108              		.cfi_def_cfa 7, 40
 109 0006 F860     		str	r0, [r7, #12]
 110 0008 B960     		str	r1, [r7, #8]
 111 000a 7A60     		str	r2, [r7, #4]
  51:Drivers/VL53L0X/Platform/vl53l0x_platform.c ****     int status;
  52:Drivers/VL53L0X/Platform/vl53l0x_platform.c ****     int i2c_time_out = I2C_TIME_OUT_BASE+ count* I2C_TIME_OUT_BYTE;
 112              		.loc 1 52 0
 113 000c 7B68     		ldr	r3, [r7, #4]
 114 000e 0A33     		adds	r3, r3, #10
 115 0010 7B61     		str	r3, [r7, #20]
  53:Drivers/VL53L0X/Platform/vl53l0x_platform.c **** 
  54:Drivers/VL53L0X/Platform/vl53l0x_platform.c ****     status = HAL_I2C_Master_Receive(Dev->I2cHandle, Dev->I2cDevAddr|1, pdata, count, i2c_time_out);
 116              		.loc 1 54 0
 117 0012 FB68     		ldr	r3, [r7, #12]
 118 0014 D3F85C11 		ldr	r1, [r3, #348]
 119 0018 FB68     		ldr	r3, [r7, #12]
 120 001a 93F86031 		ldrb	r3, [r3, #352]	@ zero_extendqisi2
ARM GAS  /tmp/ccxilnv6.s 			page 4


 121 001e 43F00103 		orr	r3, r3, #1
 122 0022 DBB2     		uxtb	r3, r3
 123 0024 9AB2     		uxth	r2, r3
 124 0026 7B68     		ldr	r3, [r7, #4]
 125 0028 9CB2     		uxth	r4, r3
 126 002a 7B69     		ldr	r3, [r7, #20]
 127 002c 0093     		str	r3, [sp]
 128 002e 0846     		mov	r0, r1
 129 0030 1146     		mov	r1, r2
 130 0032 BA68     		ldr	r2, [r7, #8]
 131 0034 2346     		mov	r3, r4
 132 0036 FFF7FEFF 		bl	HAL_I2C_Master_Receive
 133 003a 0346     		mov	r3, r0
 134 003c 3B61     		str	r3, [r7, #16]
  55:Drivers/VL53L0X/Platform/vl53l0x_platform.c ****     if (status) {
  56:Drivers/VL53L0X/Platform/vl53l0x_platform.c ****         //VL6180x_ErrLog("I2C error 0x%x %d len", dev->I2cAddr, len);
  57:Drivers/VL53L0X/Platform/vl53l0x_platform.c ****         //XNUCLEO6180XA1_I2C1_Init(&hi2c1);
  58:Drivers/VL53L0X/Platform/vl53l0x_platform.c ****     }
  59:Drivers/VL53L0X/Platform/vl53l0x_platform.c ****     return status;
 135              		.loc 1 59 0
 136 003e 3B69     		ldr	r3, [r7, #16]
  60:Drivers/VL53L0X/Platform/vl53l0x_platform.c **** }
 137              		.loc 1 60 0
 138 0040 1846     		mov	r0, r3
 139 0042 1C37     		adds	r7, r7, #28
 140              	.LCFI8:
 141              		.cfi_def_cfa_offset 12
 142 0044 BD46     		mov	sp, r7
 143              	.LCFI9:
 144              		.cfi_def_cfa_register 13
 145              		@ sp needed
 146 0046 90BD     		pop	{r4, r7, pc}
 147              		.cfi_endproc
 148              	.LFE124:
 150              		.section	.text.VL53L0X_WriteMulti,"ax",%progbits
 151              		.align	2
 152              		.global	VL53L0X_WriteMulti
 153              		.thumb
 154              		.thumb_func
 156              	VL53L0X_WriteMulti:
 157              	.LFB125:
  61:Drivers/VL53L0X/Platform/vl53l0x_platform.c **** 
  62:Drivers/VL53L0X/Platform/vl53l0x_platform.c **** // the ranging_sensor_comms.dll will take care of the page selection
  63:Drivers/VL53L0X/Platform/vl53l0x_platform.c **** VL53L0X_Error VL53L0X_WriteMulti(VL53L0X_DEV Dev, uint8_t index, uint8_t *pdata, uint32_t count) {
 158              		.loc 1 63 0
 159              		.cfi_startproc
 160              		@ args = 0, pretend = 0, frame = 24
 161              		@ frame_needed = 1, uses_anonymous_args = 0
 162 0000 80B5     		push	{r7, lr}
 163              	.LCFI10:
 164              		.cfi_def_cfa_offset 8
 165              		.cfi_offset 7, -8
 166              		.cfi_offset 14, -4
 167 0002 86B0     		sub	sp, sp, #24
 168              	.LCFI11:
 169              		.cfi_def_cfa_offset 32
 170 0004 00AF     		add	r7, sp, #0
ARM GAS  /tmp/ccxilnv6.s 			page 5


 171              	.LCFI12:
 172              		.cfi_def_cfa_register 7
 173 0006 F860     		str	r0, [r7, #12]
 174 0008 7A60     		str	r2, [r7, #4]
 175 000a 3B60     		str	r3, [r7]
 176 000c 0B46     		mov	r3, r1
 177 000e FB72     		strb	r3, [r7, #11]
  64:Drivers/VL53L0X/Platform/vl53l0x_platform.c ****     int status_int;
  65:Drivers/VL53L0X/Platform/vl53l0x_platform.c ****     VL53L0X_Error Status = VL53L0X_ERROR_NONE;
 178              		.loc 1 65 0
 179 0010 0023     		movs	r3, #0
 180 0012 FB75     		strb	r3, [r7, #23]
  66:Drivers/VL53L0X/Platform/vl53l0x_platform.c ****     if (count > sizeof(_I2CBuffer) - 1) {
 181              		.loc 1 66 0
 182 0014 3B68     		ldr	r3, [r7]
 183 0016 3F2B     		cmp	r3, #63
 184 0018 01D9     		bls	.L6
  67:Drivers/VL53L0X/Platform/vl53l0x_platform.c ****         return VL53L0X_ERROR_INVALID_PARAMS;
 185              		.loc 1 67 0
 186 001a FC23     		movs	r3, #252
 187 001c 15E0     		b	.L7
 188              	.L6:
  68:Drivers/VL53L0X/Platform/vl53l0x_platform.c ****     }
  69:Drivers/VL53L0X/Platform/vl53l0x_platform.c ****     _I2CBuffer[0] = index;
 189              		.loc 1 69 0
 190 001e 0D4A     		ldr	r2, .L9
 191 0020 FB7A     		ldrb	r3, [r7, #11]
 192 0022 1370     		strb	r3, [r2]
  70:Drivers/VL53L0X/Platform/vl53l0x_platform.c ****     memcpy(&_I2CBuffer[1], pdata, count);
 193              		.loc 1 70 0
 194 0024 0C48     		ldr	r0, .L9+4
 195 0026 7968     		ldr	r1, [r7, #4]
 196 0028 3A68     		ldr	r2, [r7]
 197 002a FFF7FEFF 		bl	memcpy
  71:Drivers/VL53L0X/Platform/vl53l0x_platform.c ****     VL53L0X_GetI2cBus();
  72:Drivers/VL53L0X/Platform/vl53l0x_platform.c ****     status_int = _I2CWrite(Dev, _I2CBuffer, count + 1);
 198              		.loc 1 72 0
 199 002e 3B68     		ldr	r3, [r7]
 200 0030 0133     		adds	r3, r3, #1
 201 0032 F868     		ldr	r0, [r7, #12]
 202 0034 0749     		ldr	r1, .L9
 203 0036 1A46     		mov	r2, r3
 204 0038 FFF7FEFF 		bl	_I2CWrite
 205 003c 3861     		str	r0, [r7, #16]
  73:Drivers/VL53L0X/Platform/vl53l0x_platform.c ****     if (status_int != 0) {
 206              		.loc 1 73 0
 207 003e 3B69     		ldr	r3, [r7, #16]
 208 0040 002B     		cmp	r3, #0
 209 0042 01D0     		beq	.L8
  74:Drivers/VL53L0X/Platform/vl53l0x_platform.c ****         Status = VL53L0X_ERROR_CONTROL_INTERFACE;
 210              		.loc 1 74 0
 211 0044 EC23     		movs	r3, #236
 212 0046 FB75     		strb	r3, [r7, #23]
 213              	.L8:
  75:Drivers/VL53L0X/Platform/vl53l0x_platform.c ****     }
  76:Drivers/VL53L0X/Platform/vl53l0x_platform.c ****     VL53L0X_PutI2cBus();
  77:Drivers/VL53L0X/Platform/vl53l0x_platform.c ****     return Status;
ARM GAS  /tmp/ccxilnv6.s 			page 6


 214              		.loc 1 77 0
 215 0048 FB7D     		ldrb	r3, [r7, #23]	@ zero_extendqisi2
 216              	.L7:
 217 004a 5BB2     		sxtb	r3, r3
  78:Drivers/VL53L0X/Platform/vl53l0x_platform.c **** }
 218              		.loc 1 78 0
 219 004c 1846     		mov	r0, r3
 220 004e 1837     		adds	r7, r7, #24
 221              	.LCFI13:
 222              		.cfi_def_cfa_offset 8
 223 0050 BD46     		mov	sp, r7
 224              	.LCFI14:
 225              		.cfi_def_cfa_register 13
 226              		@ sp needed
 227 0052 80BD     		pop	{r7, pc}
 228              	.L10:
 229              		.align	2
 230              	.L9:
 231 0054 00000000 		.word	_I2CBuffer
 232 0058 01000000 		.word	_I2CBuffer+1
 233              		.cfi_endproc
 234              	.LFE125:
 236              		.section	.text.VL53L0X_ReadMulti,"ax",%progbits
 237              		.align	2
 238              		.global	VL53L0X_ReadMulti
 239              		.thumb
 240              		.thumb_func
 242              	VL53L0X_ReadMulti:
 243              	.LFB126:
  79:Drivers/VL53L0X/Platform/vl53l0x_platform.c **** 
  80:Drivers/VL53L0X/Platform/vl53l0x_platform.c **** // the ranging_sensor_comms.dll will take care of the page selection
  81:Drivers/VL53L0X/Platform/vl53l0x_platform.c **** VL53L0X_Error VL53L0X_ReadMulti(VL53L0X_DEV Dev, uint8_t index, uint8_t *pdata, uint32_t count) {
 244              		.loc 1 81 0
 245              		.cfi_startproc
 246              		@ args = 0, pretend = 0, frame = 24
 247              		@ frame_needed = 1, uses_anonymous_args = 0
 248 0000 80B5     		push	{r7, lr}
 249              	.LCFI15:
 250              		.cfi_def_cfa_offset 8
 251              		.cfi_offset 7, -8
 252              		.cfi_offset 14, -4
 253 0002 86B0     		sub	sp, sp, #24
 254              	.LCFI16:
 255              		.cfi_def_cfa_offset 32
 256 0004 00AF     		add	r7, sp, #0
 257              	.LCFI17:
 258              		.cfi_def_cfa_register 7
 259 0006 F860     		str	r0, [r7, #12]
 260 0008 7A60     		str	r2, [r7, #4]
 261 000a 3B60     		str	r3, [r7]
 262 000c 0B46     		mov	r3, r1
 263 000e FB72     		strb	r3, [r7, #11]
  82:Drivers/VL53L0X/Platform/vl53l0x_platform.c ****     VL53L0X_Error Status = VL53L0X_ERROR_NONE;
 264              		.loc 1 82 0
 265 0010 0023     		movs	r3, #0
 266 0012 FB75     		strb	r3, [r7, #23]
  83:Drivers/VL53L0X/Platform/vl53l0x_platform.c ****     int32_t status_int;
ARM GAS  /tmp/ccxilnv6.s 			page 7


  84:Drivers/VL53L0X/Platform/vl53l0x_platform.c ****     VL53L0X_GetI2cBus();
  85:Drivers/VL53L0X/Platform/vl53l0x_platform.c ****     status_int = _I2CWrite(Dev, &index, 1);
 267              		.loc 1 85 0
 268 0014 07F10B03 		add	r3, r7, #11
 269 0018 F868     		ldr	r0, [r7, #12]
 270 001a 1946     		mov	r1, r3
 271 001c 0122     		movs	r2, #1
 272 001e FFF7FEFF 		bl	_I2CWrite
 273 0022 3861     		str	r0, [r7, #16]
  86:Drivers/VL53L0X/Platform/vl53l0x_platform.c ****     if (status_int != 0) {
 274              		.loc 1 86 0
 275 0024 3B69     		ldr	r3, [r7, #16]
 276 0026 002B     		cmp	r3, #0
 277 0028 02D0     		beq	.L12
  87:Drivers/VL53L0X/Platform/vl53l0x_platform.c ****         Status = VL53L0X_ERROR_CONTROL_INTERFACE;
 278              		.loc 1 87 0
 279 002a EC23     		movs	r3, #236
 280 002c FB75     		strb	r3, [r7, #23]
  88:Drivers/VL53L0X/Platform/vl53l0x_platform.c ****         goto done;
 281              		.loc 1 88 0
 282 002e 0AE0     		b	.L13
 283              	.L12:
  89:Drivers/VL53L0X/Platform/vl53l0x_platform.c ****     }
  90:Drivers/VL53L0X/Platform/vl53l0x_platform.c ****     status_int = _I2CRead(Dev, pdata, count);
 284              		.loc 1 90 0
 285 0030 F868     		ldr	r0, [r7, #12]
 286 0032 7968     		ldr	r1, [r7, #4]
 287 0034 3A68     		ldr	r2, [r7]
 288 0036 FFF7FEFF 		bl	_I2CRead
 289 003a 3861     		str	r0, [r7, #16]
  91:Drivers/VL53L0X/Platform/vl53l0x_platform.c ****     if (status_int != 0) {
 290              		.loc 1 91 0
 291 003c 3B69     		ldr	r3, [r7, #16]
 292 003e 002B     		cmp	r3, #0
 293 0040 01D0     		beq	.L13
  92:Drivers/VL53L0X/Platform/vl53l0x_platform.c ****         Status = VL53L0X_ERROR_CONTROL_INTERFACE;
 294              		.loc 1 92 0
 295 0042 EC23     		movs	r3, #236
 296 0044 FB75     		strb	r3, [r7, #23]
 297              	.L13:
  93:Drivers/VL53L0X/Platform/vl53l0x_platform.c ****     }
  94:Drivers/VL53L0X/Platform/vl53l0x_platform.c **** done:
  95:Drivers/VL53L0X/Platform/vl53l0x_platform.c ****     VL53L0X_PutI2cBus();
  96:Drivers/VL53L0X/Platform/vl53l0x_platform.c ****     return Status;
 298              		.loc 1 96 0
 299 0046 FB7D     		ldrb	r3, [r7, #23]	@ zero_extendqisi2
 300 0048 5BB2     		sxtb	r3, r3
  97:Drivers/VL53L0X/Platform/vl53l0x_platform.c **** }
 301              		.loc 1 97 0
 302 004a 1846     		mov	r0, r3
 303 004c 1837     		adds	r7, r7, #24
 304              	.LCFI18:
 305              		.cfi_def_cfa_offset 8
 306 004e BD46     		mov	sp, r7
 307              	.LCFI19:
 308              		.cfi_def_cfa_register 13
 309              		@ sp needed
ARM GAS  /tmp/ccxilnv6.s 			page 8


 310 0050 80BD     		pop	{r7, pc}
 311              		.cfi_endproc
 312              	.LFE126:
 314 0052 00BF     		.section	.text.VL53L0X_WrByte,"ax",%progbits
 315              		.align	2
 316              		.global	VL53L0X_WrByte
 317              		.thumb
 318              		.thumb_func
 320              	VL53L0X_WrByte:
 321              	.LFB127:
  98:Drivers/VL53L0X/Platform/vl53l0x_platform.c **** 
  99:Drivers/VL53L0X/Platform/vl53l0x_platform.c **** VL53L0X_Error VL53L0X_WrByte(VL53L0X_DEV Dev, uint8_t index, uint8_t data) {
 322              		.loc 1 99 0
 323              		.cfi_startproc
 324              		@ args = 0, pretend = 0, frame = 16
 325              		@ frame_needed = 1, uses_anonymous_args = 0
 326 0000 80B5     		push	{r7, lr}
 327              	.LCFI20:
 328              		.cfi_def_cfa_offset 8
 329              		.cfi_offset 7, -8
 330              		.cfi_offset 14, -4
 331 0002 84B0     		sub	sp, sp, #16
 332              	.LCFI21:
 333              		.cfi_def_cfa_offset 24
 334 0004 00AF     		add	r7, sp, #0
 335              	.LCFI22:
 336              		.cfi_def_cfa_register 7
 337 0006 7860     		str	r0, [r7, #4]
 338 0008 0B46     		mov	r3, r1
 339 000a FB70     		strb	r3, [r7, #3]
 340 000c 1346     		mov	r3, r2
 341 000e BB70     		strb	r3, [r7, #2]
 100:Drivers/VL53L0X/Platform/vl53l0x_platform.c ****     VL53L0X_Error Status = VL53L0X_ERROR_NONE;
 342              		.loc 1 100 0
 343 0010 0023     		movs	r3, #0
 344 0012 FB73     		strb	r3, [r7, #15]
 101:Drivers/VL53L0X/Platform/vl53l0x_platform.c ****     int32_t status_int;
 102:Drivers/VL53L0X/Platform/vl53l0x_platform.c **** 
 103:Drivers/VL53L0X/Platform/vl53l0x_platform.c ****     _I2CBuffer[0] = index;
 345              		.loc 1 103 0
 346 0014 0B4A     		ldr	r2, .L18
 347 0016 FB78     		ldrb	r3, [r7, #3]
 348 0018 1370     		strb	r3, [r2]
 104:Drivers/VL53L0X/Platform/vl53l0x_platform.c ****     _I2CBuffer[1] = data;
 349              		.loc 1 104 0
 350 001a 0A4A     		ldr	r2, .L18
 351 001c BB78     		ldrb	r3, [r7, #2]
 352 001e 5370     		strb	r3, [r2, #1]
 105:Drivers/VL53L0X/Platform/vl53l0x_platform.c **** 
 106:Drivers/VL53L0X/Platform/vl53l0x_platform.c ****     VL53L0X_GetI2cBus();
 107:Drivers/VL53L0X/Platform/vl53l0x_platform.c ****     status_int = _I2CWrite(Dev, _I2CBuffer, 2);
 353              		.loc 1 107 0
 354 0020 7868     		ldr	r0, [r7, #4]
 355 0022 0849     		ldr	r1, .L18
 356 0024 0222     		movs	r2, #2
 357 0026 FFF7FEFF 		bl	_I2CWrite
 358 002a B860     		str	r0, [r7, #8]
ARM GAS  /tmp/ccxilnv6.s 			page 9


 108:Drivers/VL53L0X/Platform/vl53l0x_platform.c ****     if (status_int != 0) {
 359              		.loc 1 108 0
 360 002c BB68     		ldr	r3, [r7, #8]
 361 002e 002B     		cmp	r3, #0
 362 0030 01D0     		beq	.L16
 109:Drivers/VL53L0X/Platform/vl53l0x_platform.c ****         Status = VL53L0X_ERROR_CONTROL_INTERFACE;
 363              		.loc 1 109 0
 364 0032 EC23     		movs	r3, #236
 365 0034 FB73     		strb	r3, [r7, #15]
 366              	.L16:
 110:Drivers/VL53L0X/Platform/vl53l0x_platform.c ****     }
 111:Drivers/VL53L0X/Platform/vl53l0x_platform.c ****     VL53L0X_PutI2cBus();
 112:Drivers/VL53L0X/Platform/vl53l0x_platform.c ****     return Status;
 367              		.loc 1 112 0
 368 0036 FB7B     		ldrb	r3, [r7, #15]	@ zero_extendqisi2
 369 0038 5BB2     		sxtb	r3, r3
 113:Drivers/VL53L0X/Platform/vl53l0x_platform.c **** }
 370              		.loc 1 113 0
 371 003a 1846     		mov	r0, r3
 372 003c 1037     		adds	r7, r7, #16
 373              	.LCFI23:
 374              		.cfi_def_cfa_offset 8
 375 003e BD46     		mov	sp, r7
 376              	.LCFI24:
 377              		.cfi_def_cfa_register 13
 378              		@ sp needed
 379 0040 80BD     		pop	{r7, pc}
 380              	.L19:
 381 0042 00BF     		.align	2
 382              	.L18:
 383 0044 00000000 		.word	_I2CBuffer
 384              		.cfi_endproc
 385              	.LFE127:
 387              		.section	.text.VL53L0X_WrWord,"ax",%progbits
 388              		.align	2
 389              		.global	VL53L0X_WrWord
 390              		.thumb
 391              		.thumb_func
 393              	VL53L0X_WrWord:
 394              	.LFB128:
 114:Drivers/VL53L0X/Platform/vl53l0x_platform.c **** 
 115:Drivers/VL53L0X/Platform/vl53l0x_platform.c **** VL53L0X_Error VL53L0X_WrWord(VL53L0X_DEV Dev, uint8_t index, uint16_t data) {
 395              		.loc 1 115 0
 396              		.cfi_startproc
 397              		@ args = 0, pretend = 0, frame = 16
 398              		@ frame_needed = 1, uses_anonymous_args = 0
 399 0000 80B5     		push	{r7, lr}
 400              	.LCFI25:
 401              		.cfi_def_cfa_offset 8
 402              		.cfi_offset 7, -8
 403              		.cfi_offset 14, -4
 404 0002 84B0     		sub	sp, sp, #16
 405              	.LCFI26:
 406              		.cfi_def_cfa_offset 24
 407 0004 00AF     		add	r7, sp, #0
 408              	.LCFI27:
 409              		.cfi_def_cfa_register 7
ARM GAS  /tmp/ccxilnv6.s 			page 10


 410 0006 7860     		str	r0, [r7, #4]
 411 0008 0B46     		mov	r3, r1
 412 000a FB70     		strb	r3, [r7, #3]
 413 000c 1346     		mov	r3, r2	@ movhi
 414 000e 3B80     		strh	r3, [r7]	@ movhi
 116:Drivers/VL53L0X/Platform/vl53l0x_platform.c ****     VL53L0X_Error Status = VL53L0X_ERROR_NONE;
 415              		.loc 1 116 0
 416 0010 0023     		movs	r3, #0
 417 0012 FB73     		strb	r3, [r7, #15]
 117:Drivers/VL53L0X/Platform/vl53l0x_platform.c ****     int32_t status_int;
 118:Drivers/VL53L0X/Platform/vl53l0x_platform.c **** 
 119:Drivers/VL53L0X/Platform/vl53l0x_platform.c ****     _I2CBuffer[0] = index;
 418              		.loc 1 119 0
 419 0014 0E4A     		ldr	r2, .L23
 420 0016 FB78     		ldrb	r3, [r7, #3]
 421 0018 1370     		strb	r3, [r2]
 120:Drivers/VL53L0X/Platform/vl53l0x_platform.c ****     _I2CBuffer[1] = data >> 8;
 422              		.loc 1 120 0
 423 001a 3B88     		ldrh	r3, [r7]
 424 001c 1B0A     		lsrs	r3, r3, #8
 425 001e 9BB2     		uxth	r3, r3
 426 0020 DAB2     		uxtb	r2, r3
 427 0022 0B4B     		ldr	r3, .L23
 428 0024 5A70     		strb	r2, [r3, #1]
 121:Drivers/VL53L0X/Platform/vl53l0x_platform.c ****     _I2CBuffer[2] = data & 0x00FF;
 429              		.loc 1 121 0
 430 0026 3B88     		ldrh	r3, [r7]	@ movhi
 431 0028 DAB2     		uxtb	r2, r3
 432 002a 094B     		ldr	r3, .L23
 433 002c 9A70     		strb	r2, [r3, #2]
 122:Drivers/VL53L0X/Platform/vl53l0x_platform.c **** 
 123:Drivers/VL53L0X/Platform/vl53l0x_platform.c ****     VL53L0X_GetI2cBus();
 124:Drivers/VL53L0X/Platform/vl53l0x_platform.c ****     status_int = _I2CWrite(Dev, _I2CBuffer, 3);
 434              		.loc 1 124 0
 435 002e 7868     		ldr	r0, [r7, #4]
 436 0030 0749     		ldr	r1, .L23
 437 0032 0322     		movs	r2, #3
 438 0034 FFF7FEFF 		bl	_I2CWrite
 439 0038 B860     		str	r0, [r7, #8]
 125:Drivers/VL53L0X/Platform/vl53l0x_platform.c ****     if (status_int != 0) {
 440              		.loc 1 125 0
 441 003a BB68     		ldr	r3, [r7, #8]
 442 003c 002B     		cmp	r3, #0
 443 003e 01D0     		beq	.L21
 126:Drivers/VL53L0X/Platform/vl53l0x_platform.c ****         Status = VL53L0X_ERROR_CONTROL_INTERFACE;
 444              		.loc 1 126 0
 445 0040 EC23     		movs	r3, #236
 446 0042 FB73     		strb	r3, [r7, #15]
 447              	.L21:
 127:Drivers/VL53L0X/Platform/vl53l0x_platform.c ****     }
 128:Drivers/VL53L0X/Platform/vl53l0x_platform.c ****     VL53L0X_PutI2cBus();
 129:Drivers/VL53L0X/Platform/vl53l0x_platform.c ****     return Status;
 448              		.loc 1 129 0
 449 0044 FB7B     		ldrb	r3, [r7, #15]	@ zero_extendqisi2
 450 0046 5BB2     		sxtb	r3, r3
 130:Drivers/VL53L0X/Platform/vl53l0x_platform.c **** }
 451              		.loc 1 130 0
ARM GAS  /tmp/ccxilnv6.s 			page 11


 452 0048 1846     		mov	r0, r3
 453 004a 1037     		adds	r7, r7, #16
 454              	.LCFI28:
 455              		.cfi_def_cfa_offset 8
 456 004c BD46     		mov	sp, r7
 457              	.LCFI29:
 458              		.cfi_def_cfa_register 13
 459              		@ sp needed
 460 004e 80BD     		pop	{r7, pc}
 461              	.L24:
 462              		.align	2
 463              	.L23:
 464 0050 00000000 		.word	_I2CBuffer
 465              		.cfi_endproc
 466              	.LFE128:
 468              		.section	.text.VL53L0X_WrDWord,"ax",%progbits
 469              		.align	2
 470              		.global	VL53L0X_WrDWord
 471              		.thumb
 472              		.thumb_func
 474              	VL53L0X_WrDWord:
 475              	.LFB129:
 131:Drivers/VL53L0X/Platform/vl53l0x_platform.c **** 
 132:Drivers/VL53L0X/Platform/vl53l0x_platform.c **** VL53L0X_Error VL53L0X_WrDWord(VL53L0X_DEV Dev, uint8_t index, uint32_t data) {
 476              		.loc 1 132 0
 477              		.cfi_startproc
 478              		@ args = 0, pretend = 0, frame = 24
 479              		@ frame_needed = 1, uses_anonymous_args = 0
 480 0000 80B5     		push	{r7, lr}
 481              	.LCFI30:
 482              		.cfi_def_cfa_offset 8
 483              		.cfi_offset 7, -8
 484              		.cfi_offset 14, -4
 485 0002 86B0     		sub	sp, sp, #24
 486              	.LCFI31:
 487              		.cfi_def_cfa_offset 32
 488 0004 00AF     		add	r7, sp, #0
 489              	.LCFI32:
 490              		.cfi_def_cfa_register 7
 491 0006 F860     		str	r0, [r7, #12]
 492 0008 0B46     		mov	r3, r1
 493 000a 7A60     		str	r2, [r7, #4]
 494 000c FB72     		strb	r3, [r7, #11]
 133:Drivers/VL53L0X/Platform/vl53l0x_platform.c ****     VL53L0X_Error Status = VL53L0X_ERROR_NONE;
 495              		.loc 1 133 0
 496 000e 0023     		movs	r3, #0
 497 0010 FB75     		strb	r3, [r7, #23]
 134:Drivers/VL53L0X/Platform/vl53l0x_platform.c ****     int32_t status_int;
 135:Drivers/VL53L0X/Platform/vl53l0x_platform.c ****     _I2CBuffer[0] = index;
 498              		.loc 1 135 0
 499 0012 134A     		ldr	r2, .L28
 500 0014 FB7A     		ldrb	r3, [r7, #11]
 501 0016 1370     		strb	r3, [r2]
 136:Drivers/VL53L0X/Platform/vl53l0x_platform.c ****     _I2CBuffer[1] = (data >> 24) & 0xFF;
 502              		.loc 1 136 0
 503 0018 7B68     		ldr	r3, [r7, #4]
 504 001a 1B0E     		lsrs	r3, r3, #24
ARM GAS  /tmp/ccxilnv6.s 			page 12


 505 001c DAB2     		uxtb	r2, r3
 506 001e 104B     		ldr	r3, .L28
 507 0020 5A70     		strb	r2, [r3, #1]
 137:Drivers/VL53L0X/Platform/vl53l0x_platform.c ****     _I2CBuffer[2] = (data >> 16) & 0xFF;
 508              		.loc 1 137 0
 509 0022 7B68     		ldr	r3, [r7, #4]
 510 0024 1B0C     		lsrs	r3, r3, #16
 511 0026 DAB2     		uxtb	r2, r3
 512 0028 0D4B     		ldr	r3, .L28
 513 002a 9A70     		strb	r2, [r3, #2]
 138:Drivers/VL53L0X/Platform/vl53l0x_platform.c ****     _I2CBuffer[3] = (data >> 8)  & 0xFF;
 514              		.loc 1 138 0
 515 002c 7B68     		ldr	r3, [r7, #4]
 516 002e 1B0A     		lsrs	r3, r3, #8
 517 0030 DAB2     		uxtb	r2, r3
 518 0032 0B4B     		ldr	r3, .L28
 519 0034 DA70     		strb	r2, [r3, #3]
 139:Drivers/VL53L0X/Platform/vl53l0x_platform.c ****     _I2CBuffer[4] = (data >> 0 ) & 0xFF;
 520              		.loc 1 139 0
 521 0036 7B68     		ldr	r3, [r7, #4]
 522 0038 DAB2     		uxtb	r2, r3
 523 003a 094B     		ldr	r3, .L28
 524 003c 1A71     		strb	r2, [r3, #4]
 140:Drivers/VL53L0X/Platform/vl53l0x_platform.c ****     VL53L0X_GetI2cBus();
 141:Drivers/VL53L0X/Platform/vl53l0x_platform.c ****     status_int = _I2CWrite(Dev, _I2CBuffer, 5);
 525              		.loc 1 141 0
 526 003e F868     		ldr	r0, [r7, #12]
 527 0040 0749     		ldr	r1, .L28
 528 0042 0522     		movs	r2, #5
 529 0044 FFF7FEFF 		bl	_I2CWrite
 530 0048 3861     		str	r0, [r7, #16]
 142:Drivers/VL53L0X/Platform/vl53l0x_platform.c ****     if (status_int != 0) {
 531              		.loc 1 142 0
 532 004a 3B69     		ldr	r3, [r7, #16]
 533 004c 002B     		cmp	r3, #0
 534 004e 01D0     		beq	.L26
 143:Drivers/VL53L0X/Platform/vl53l0x_platform.c ****         Status = VL53L0X_ERROR_CONTROL_INTERFACE;
 535              		.loc 1 143 0
 536 0050 EC23     		movs	r3, #236
 537 0052 FB75     		strb	r3, [r7, #23]
 538              	.L26:
 144:Drivers/VL53L0X/Platform/vl53l0x_platform.c ****     }
 145:Drivers/VL53L0X/Platform/vl53l0x_platform.c ****     VL53L0X_PutI2cBus();
 146:Drivers/VL53L0X/Platform/vl53l0x_platform.c ****     return Status;
 539              		.loc 1 146 0
 540 0054 FB7D     		ldrb	r3, [r7, #23]	@ zero_extendqisi2
 541 0056 5BB2     		sxtb	r3, r3
 147:Drivers/VL53L0X/Platform/vl53l0x_platform.c **** }
 542              		.loc 1 147 0
 543 0058 1846     		mov	r0, r3
 544 005a 1837     		adds	r7, r7, #24
 545              	.LCFI33:
 546              		.cfi_def_cfa_offset 8
 547 005c BD46     		mov	sp, r7
 548              	.LCFI34:
 549              		.cfi_def_cfa_register 13
 550              		@ sp needed
ARM GAS  /tmp/ccxilnv6.s 			page 13


 551 005e 80BD     		pop	{r7, pc}
 552              	.L29:
 553              		.align	2
 554              	.L28:
 555 0060 00000000 		.word	_I2CBuffer
 556              		.cfi_endproc
 557              	.LFE129:
 559              		.section	.text.VL53L0X_UpdateByte,"ax",%progbits
 560              		.align	2
 561              		.global	VL53L0X_UpdateByte
 562              		.thumb
 563              		.thumb_func
 565              	VL53L0X_UpdateByte:
 566              	.LFB130:
 148:Drivers/VL53L0X/Platform/vl53l0x_platform.c **** 
 149:Drivers/VL53L0X/Platform/vl53l0x_platform.c **** VL53L0X_Error VL53L0X_UpdateByte(VL53L0X_DEV Dev, uint8_t index, uint8_t AndData, uint8_t OrData) {
 567              		.loc 1 149 0
 568              		.cfi_startproc
 569              		@ args = 0, pretend = 0, frame = 16
 570              		@ frame_needed = 1, uses_anonymous_args = 0
 571 0000 80B5     		push	{r7, lr}
 572              	.LCFI35:
 573              		.cfi_def_cfa_offset 8
 574              		.cfi_offset 7, -8
 575              		.cfi_offset 14, -4
 576 0002 84B0     		sub	sp, sp, #16
 577              	.LCFI36:
 578              		.cfi_def_cfa_offset 24
 579 0004 00AF     		add	r7, sp, #0
 580              	.LCFI37:
 581              		.cfi_def_cfa_register 7
 582 0006 7860     		str	r0, [r7, #4]
 583 0008 0846     		mov	r0, r1
 584 000a 1146     		mov	r1, r2
 585 000c 1A46     		mov	r2, r3
 586 000e 0346     		mov	r3, r0
 587 0010 FB70     		strb	r3, [r7, #3]
 588 0012 0B46     		mov	r3, r1
 589 0014 BB70     		strb	r3, [r7, #2]
 590 0016 1346     		mov	r3, r2
 591 0018 7B70     		strb	r3, [r7, #1]
 150:Drivers/VL53L0X/Platform/vl53l0x_platform.c ****     VL53L0X_Error Status = VL53L0X_ERROR_NONE;
 592              		.loc 1 150 0
 593 001a 0023     		movs	r3, #0
 594 001c FB73     		strb	r3, [r7, #15]
 151:Drivers/VL53L0X/Platform/vl53l0x_platform.c ****     uint8_t data;
 152:Drivers/VL53L0X/Platform/vl53l0x_platform.c **** 
 153:Drivers/VL53L0X/Platform/vl53l0x_platform.c ****     Status = VL53L0X_RdByte(Dev, index, &data);
 595              		.loc 1 153 0
 596 001e FA78     		ldrb	r2, [r7, #3]	@ zero_extendqisi2
 597 0020 07F10E03 		add	r3, r7, #14
 598 0024 7868     		ldr	r0, [r7, #4]
 599 0026 1146     		mov	r1, r2
 600 0028 1A46     		mov	r2, r3
 601 002a FFF7FEFF 		bl	VL53L0X_RdByte
 602 002e 0346     		mov	r3, r0
 603 0030 FB73     		strb	r3, [r7, #15]
ARM GAS  /tmp/ccxilnv6.s 			page 14


 154:Drivers/VL53L0X/Platform/vl53l0x_platform.c ****     if (Status) {
 604              		.loc 1 154 0
 605 0032 97F90F30 		ldrsb	r3, [r7, #15]
 606 0036 002B     		cmp	r3, #0
 607 0038 00D0     		beq	.L31
 155:Drivers/VL53L0X/Platform/vl53l0x_platform.c ****         goto done;
 608              		.loc 1 155 0
 609 003a 10E0     		b	.L32
 610              	.L31:
 156:Drivers/VL53L0X/Platform/vl53l0x_platform.c ****     }
 157:Drivers/VL53L0X/Platform/vl53l0x_platform.c ****     data = (data & AndData) | OrData;
 611              		.loc 1 157 0
 612 003c BA7B     		ldrb	r2, [r7, #14]	@ zero_extendqisi2
 613 003e BB78     		ldrb	r3, [r7, #2]
 614 0040 1340     		ands	r3, r3, r2
 615 0042 DAB2     		uxtb	r2, r3
 616 0044 7B78     		ldrb	r3, [r7, #1]
 617 0046 1343     		orrs	r3, r3, r2
 618 0048 DBB2     		uxtb	r3, r3
 619 004a BB73     		strb	r3, [r7, #14]
 158:Drivers/VL53L0X/Platform/vl53l0x_platform.c ****     Status = VL53L0X_WrByte(Dev, index, data);
 620              		.loc 1 158 0
 621 004c BB7B     		ldrb	r3, [r7, #14]	@ zero_extendqisi2
 622 004e FA78     		ldrb	r2, [r7, #3]	@ zero_extendqisi2
 623 0050 7868     		ldr	r0, [r7, #4]
 624 0052 1146     		mov	r1, r2
 625 0054 1A46     		mov	r2, r3
 626 0056 FFF7FEFF 		bl	VL53L0X_WrByte
 627 005a 0346     		mov	r3, r0
 628 005c FB73     		strb	r3, [r7, #15]
 629              	.L32:
 159:Drivers/VL53L0X/Platform/vl53l0x_platform.c **** done:
 160:Drivers/VL53L0X/Platform/vl53l0x_platform.c ****     return Status;
 630              		.loc 1 160 0
 631 005e FB7B     		ldrb	r3, [r7, #15]	@ zero_extendqisi2
 632 0060 5BB2     		sxtb	r3, r3
 161:Drivers/VL53L0X/Platform/vl53l0x_platform.c **** }
 633              		.loc 1 161 0
 634 0062 1846     		mov	r0, r3
 635 0064 1037     		adds	r7, r7, #16
 636              	.LCFI38:
 637              		.cfi_def_cfa_offset 8
 638 0066 BD46     		mov	sp, r7
 639              	.LCFI39:
 640              		.cfi_def_cfa_register 13
 641              		@ sp needed
 642 0068 80BD     		pop	{r7, pc}
 643              		.cfi_endproc
 644              	.LFE130:
 646 006a 00BF     		.section	.text.VL53L0X_RdByte,"ax",%progbits
 647              		.align	2
 648              		.global	VL53L0X_RdByte
 649              		.thumb
 650              		.thumb_func
 652              	VL53L0X_RdByte:
 653              	.LFB131:
 162:Drivers/VL53L0X/Platform/vl53l0x_platform.c **** 
ARM GAS  /tmp/ccxilnv6.s 			page 15


 163:Drivers/VL53L0X/Platform/vl53l0x_platform.c **** VL53L0X_Error VL53L0X_RdByte(VL53L0X_DEV Dev, uint8_t index, uint8_t *data) {
 654              		.loc 1 163 0
 655              		.cfi_startproc
 656              		@ args = 0, pretend = 0, frame = 24
 657              		@ frame_needed = 1, uses_anonymous_args = 0
 658 0000 80B5     		push	{r7, lr}
 659              	.LCFI40:
 660              		.cfi_def_cfa_offset 8
 661              		.cfi_offset 7, -8
 662              		.cfi_offset 14, -4
 663 0002 86B0     		sub	sp, sp, #24
 664              	.LCFI41:
 665              		.cfi_def_cfa_offset 32
 666 0004 00AF     		add	r7, sp, #0
 667              	.LCFI42:
 668              		.cfi_def_cfa_register 7
 669 0006 F860     		str	r0, [r7, #12]
 670 0008 0B46     		mov	r3, r1
 671 000a 7A60     		str	r2, [r7, #4]
 672 000c FB72     		strb	r3, [r7, #11]
 164:Drivers/VL53L0X/Platform/vl53l0x_platform.c ****     VL53L0X_Error Status = VL53L0X_ERROR_NONE;
 673              		.loc 1 164 0
 674 000e 0023     		movs	r3, #0
 675 0010 FB75     		strb	r3, [r7, #23]
 165:Drivers/VL53L0X/Platform/vl53l0x_platform.c ****     int32_t status_int;
 166:Drivers/VL53L0X/Platform/vl53l0x_platform.c **** 
 167:Drivers/VL53L0X/Platform/vl53l0x_platform.c ****     VL53L0X_GetI2cBus();
 168:Drivers/VL53L0X/Platform/vl53l0x_platform.c ****     status_int = _I2CWrite(Dev, &index, 1);
 676              		.loc 1 168 0
 677 0012 07F10B03 		add	r3, r7, #11
 678 0016 F868     		ldr	r0, [r7, #12]
 679 0018 1946     		mov	r1, r3
 680 001a 0122     		movs	r2, #1
 681 001c FFF7FEFF 		bl	_I2CWrite
 682 0020 3861     		str	r0, [r7, #16]
 169:Drivers/VL53L0X/Platform/vl53l0x_platform.c ****     if( status_int ){
 683              		.loc 1 169 0
 684 0022 3B69     		ldr	r3, [r7, #16]
 685 0024 002B     		cmp	r3, #0
 686 0026 02D0     		beq	.L35
 170:Drivers/VL53L0X/Platform/vl53l0x_platform.c ****         Status = VL53L0X_ERROR_CONTROL_INTERFACE;
 687              		.loc 1 170 0
 688 0028 EC23     		movs	r3, #236
 689 002a FB75     		strb	r3, [r7, #23]
 171:Drivers/VL53L0X/Platform/vl53l0x_platform.c ****         goto done;
 690              		.loc 1 171 0
 691 002c 0AE0     		b	.L36
 692              	.L35:
 172:Drivers/VL53L0X/Platform/vl53l0x_platform.c ****     }
 173:Drivers/VL53L0X/Platform/vl53l0x_platform.c ****     status_int = _I2CRead(Dev, data, 1);
 693              		.loc 1 173 0
 694 002e F868     		ldr	r0, [r7, #12]
 695 0030 7968     		ldr	r1, [r7, #4]
 696 0032 0122     		movs	r2, #1
 697 0034 FFF7FEFF 		bl	_I2CRead
 698 0038 3861     		str	r0, [r7, #16]
 174:Drivers/VL53L0X/Platform/vl53l0x_platform.c ****     if (status_int != 0) {
ARM GAS  /tmp/ccxilnv6.s 			page 16


 699              		.loc 1 174 0
 700 003a 3B69     		ldr	r3, [r7, #16]
 701 003c 002B     		cmp	r3, #0
 702 003e 01D0     		beq	.L36
 175:Drivers/VL53L0X/Platform/vl53l0x_platform.c ****         Status = VL53L0X_ERROR_CONTROL_INTERFACE;
 703              		.loc 1 175 0
 704 0040 EC23     		movs	r3, #236
 705 0042 FB75     		strb	r3, [r7, #23]
 706              	.L36:
 176:Drivers/VL53L0X/Platform/vl53l0x_platform.c ****     }
 177:Drivers/VL53L0X/Platform/vl53l0x_platform.c **** done:
 178:Drivers/VL53L0X/Platform/vl53l0x_platform.c ****     VL53L0X_PutI2cBus();
 179:Drivers/VL53L0X/Platform/vl53l0x_platform.c ****     return Status;
 707              		.loc 1 179 0
 708 0044 FB7D     		ldrb	r3, [r7, #23]	@ zero_extendqisi2
 709 0046 5BB2     		sxtb	r3, r3
 180:Drivers/VL53L0X/Platform/vl53l0x_platform.c **** }
 710              		.loc 1 180 0
 711 0048 1846     		mov	r0, r3
 712 004a 1837     		adds	r7, r7, #24
 713              	.LCFI43:
 714              		.cfi_def_cfa_offset 8
 715 004c BD46     		mov	sp, r7
 716              	.LCFI44:
 717              		.cfi_def_cfa_register 13
 718              		@ sp needed
 719 004e 80BD     		pop	{r7, pc}
 720              		.cfi_endproc
 721              	.LFE131:
 723              		.section	.text.VL53L0X_RdWord,"ax",%progbits
 724              		.align	2
 725              		.global	VL53L0X_RdWord
 726              		.thumb
 727              		.thumb_func
 729              	VL53L0X_RdWord:
 730              	.LFB132:
 181:Drivers/VL53L0X/Platform/vl53l0x_platform.c **** 
 182:Drivers/VL53L0X/Platform/vl53l0x_platform.c **** VL53L0X_Error VL53L0X_RdWord(VL53L0X_DEV Dev, uint8_t index, uint16_t *data) {
 731              		.loc 1 182 0
 732              		.cfi_startproc
 733              		@ args = 0, pretend = 0, frame = 24
 734              		@ frame_needed = 1, uses_anonymous_args = 0
 735 0000 80B5     		push	{r7, lr}
 736              	.LCFI45:
 737              		.cfi_def_cfa_offset 8
 738              		.cfi_offset 7, -8
 739              		.cfi_offset 14, -4
 740 0002 86B0     		sub	sp, sp, #24
 741              	.LCFI46:
 742              		.cfi_def_cfa_offset 32
 743 0004 00AF     		add	r7, sp, #0
 744              	.LCFI47:
 745              		.cfi_def_cfa_register 7
 746 0006 F860     		str	r0, [r7, #12]
 747 0008 0B46     		mov	r3, r1
 748 000a 7A60     		str	r2, [r7, #4]
 749 000c FB72     		strb	r3, [r7, #11]
ARM GAS  /tmp/ccxilnv6.s 			page 17


 183:Drivers/VL53L0X/Platform/vl53l0x_platform.c ****     VL53L0X_Error Status = VL53L0X_ERROR_NONE;
 750              		.loc 1 183 0
 751 000e 0023     		movs	r3, #0
 752 0010 FB75     		strb	r3, [r7, #23]
 184:Drivers/VL53L0X/Platform/vl53l0x_platform.c ****     int32_t status_int;
 185:Drivers/VL53L0X/Platform/vl53l0x_platform.c **** 
 186:Drivers/VL53L0X/Platform/vl53l0x_platform.c ****     VL53L0X_GetI2cBus();
 187:Drivers/VL53L0X/Platform/vl53l0x_platform.c ****     status_int = _I2CWrite(Dev, &index, 1);
 753              		.loc 1 187 0
 754 0012 07F10B03 		add	r3, r7, #11
 755 0016 F868     		ldr	r0, [r7, #12]
 756 0018 1946     		mov	r1, r3
 757 001a 0122     		movs	r2, #1
 758 001c FFF7FEFF 		bl	_I2CWrite
 759 0020 3861     		str	r0, [r7, #16]
 188:Drivers/VL53L0X/Platform/vl53l0x_platform.c **** 
 189:Drivers/VL53L0X/Platform/vl53l0x_platform.c ****     if( status_int ){
 760              		.loc 1 189 0
 761 0022 3B69     		ldr	r3, [r7, #16]
 762 0024 002B     		cmp	r3, #0
 763 0026 02D0     		beq	.L39
 190:Drivers/VL53L0X/Platform/vl53l0x_platform.c ****         Status = VL53L0X_ERROR_CONTROL_INTERFACE;
 764              		.loc 1 190 0
 765 0028 EC23     		movs	r3, #236
 766 002a FB75     		strb	r3, [r7, #23]
 191:Drivers/VL53L0X/Platform/vl53l0x_platform.c ****         goto done;
 767              		.loc 1 191 0
 768 002c 17E0     		b	.L40
 769              	.L39:
 192:Drivers/VL53L0X/Platform/vl53l0x_platform.c ****     }
 193:Drivers/VL53L0X/Platform/vl53l0x_platform.c ****     status_int = _I2CRead(Dev, _I2CBuffer, 2);
 770              		.loc 1 193 0
 771 002e F868     		ldr	r0, [r7, #12]
 772 0030 0E49     		ldr	r1, .L43
 773 0032 0222     		movs	r2, #2
 774 0034 FFF7FEFF 		bl	_I2CRead
 775 0038 3861     		str	r0, [r7, #16]
 194:Drivers/VL53L0X/Platform/vl53l0x_platform.c ****     if (status_int != 0) {
 776              		.loc 1 194 0
 777 003a 3B69     		ldr	r3, [r7, #16]
 778 003c 002B     		cmp	r3, #0
 779 003e 02D0     		beq	.L41
 195:Drivers/VL53L0X/Platform/vl53l0x_platform.c ****         Status = VL53L0X_ERROR_CONTROL_INTERFACE;
 780              		.loc 1 195 0
 781 0040 EC23     		movs	r3, #236
 782 0042 FB75     		strb	r3, [r7, #23]
 196:Drivers/VL53L0X/Platform/vl53l0x_platform.c ****         goto done;
 783              		.loc 1 196 0
 784 0044 0BE0     		b	.L40
 785              	.L41:
 197:Drivers/VL53L0X/Platform/vl53l0x_platform.c ****     }
 198:Drivers/VL53L0X/Platform/vl53l0x_platform.c **** 
 199:Drivers/VL53L0X/Platform/vl53l0x_platform.c ****     *data = ((uint16_t)_I2CBuffer[0]<<8) + (uint16_t)_I2CBuffer[1];
 786              		.loc 1 199 0
 787 0046 094B     		ldr	r3, .L43
 788 0048 1B78     		ldrb	r3, [r3]	@ zero_extendqisi2
 789 004a 9BB2     		uxth	r3, r3
ARM GAS  /tmp/ccxilnv6.s 			page 18


 790 004c 1B02     		lsls	r3, r3, #8
 791 004e 9AB2     		uxth	r2, r3
 792 0050 064B     		ldr	r3, .L43
 793 0052 5B78     		ldrb	r3, [r3, #1]	@ zero_extendqisi2
 794 0054 9BB2     		uxth	r3, r3
 795 0056 1344     		add	r3, r3, r2
 796 0058 9AB2     		uxth	r2, r3
 797 005a 7B68     		ldr	r3, [r7, #4]
 798 005c 1A80     		strh	r2, [r3]	@ movhi
 799              	.L40:
 200:Drivers/VL53L0X/Platform/vl53l0x_platform.c **** done:
 201:Drivers/VL53L0X/Platform/vl53l0x_platform.c ****     VL53L0X_PutI2cBus();
 202:Drivers/VL53L0X/Platform/vl53l0x_platform.c ****     return Status;
 800              		.loc 1 202 0
 801 005e FB7D     		ldrb	r3, [r7, #23]	@ zero_extendqisi2
 802 0060 5BB2     		sxtb	r3, r3
 203:Drivers/VL53L0X/Platform/vl53l0x_platform.c **** }
 803              		.loc 1 203 0
 804 0062 1846     		mov	r0, r3
 805 0064 1837     		adds	r7, r7, #24
 806              	.LCFI48:
 807              		.cfi_def_cfa_offset 8
 808 0066 BD46     		mov	sp, r7
 809              	.LCFI49:
 810              		.cfi_def_cfa_register 13
 811              		@ sp needed
 812 0068 80BD     		pop	{r7, pc}
 813              	.L44:
 814 006a 00BF     		.align	2
 815              	.L43:
 816 006c 00000000 		.word	_I2CBuffer
 817              		.cfi_endproc
 818              	.LFE132:
 820              		.section	.text.VL53L0X_RdDWord,"ax",%progbits
 821              		.align	2
 822              		.global	VL53L0X_RdDWord
 823              		.thumb
 824              		.thumb_func
 826              	VL53L0X_RdDWord:
 827              	.LFB133:
 204:Drivers/VL53L0X/Platform/vl53l0x_platform.c **** 
 205:Drivers/VL53L0X/Platform/vl53l0x_platform.c **** VL53L0X_Error VL53L0X_RdDWord(VL53L0X_DEV Dev, uint8_t index, uint32_t *data) {
 828              		.loc 1 205 0
 829              		.cfi_startproc
 830              		@ args = 0, pretend = 0, frame = 24
 831              		@ frame_needed = 1, uses_anonymous_args = 0
 832 0000 80B5     		push	{r7, lr}
 833              	.LCFI50:
 834              		.cfi_def_cfa_offset 8
 835              		.cfi_offset 7, -8
 836              		.cfi_offset 14, -4
 837 0002 86B0     		sub	sp, sp, #24
 838              	.LCFI51:
 839              		.cfi_def_cfa_offset 32
 840 0004 00AF     		add	r7, sp, #0
 841              	.LCFI52:
 842              		.cfi_def_cfa_register 7
ARM GAS  /tmp/ccxilnv6.s 			page 19


 843 0006 F860     		str	r0, [r7, #12]
 844 0008 0B46     		mov	r3, r1
 845 000a 7A60     		str	r2, [r7, #4]
 846 000c FB72     		strb	r3, [r7, #11]
 206:Drivers/VL53L0X/Platform/vl53l0x_platform.c ****     VL53L0X_Error Status = VL53L0X_ERROR_NONE;
 847              		.loc 1 206 0
 848 000e 0023     		movs	r3, #0
 849 0010 FB75     		strb	r3, [r7, #23]
 207:Drivers/VL53L0X/Platform/vl53l0x_platform.c ****     int32_t status_int;
 208:Drivers/VL53L0X/Platform/vl53l0x_platform.c **** 
 209:Drivers/VL53L0X/Platform/vl53l0x_platform.c ****     VL53L0X_GetI2cBus();
 210:Drivers/VL53L0X/Platform/vl53l0x_platform.c ****     status_int = _I2CWrite(Dev, &index, 1);
 850              		.loc 1 210 0
 851 0012 07F10B03 		add	r3, r7, #11
 852 0016 F868     		ldr	r0, [r7, #12]
 853 0018 1946     		mov	r1, r3
 854 001a 0122     		movs	r2, #1
 855 001c FFF7FEFF 		bl	_I2CWrite
 856 0020 3861     		str	r0, [r7, #16]
 211:Drivers/VL53L0X/Platform/vl53l0x_platform.c ****     if (status_int != 0) {
 857              		.loc 1 211 0
 858 0022 3B69     		ldr	r3, [r7, #16]
 859 0024 002B     		cmp	r3, #0
 860 0026 02D0     		beq	.L46
 212:Drivers/VL53L0X/Platform/vl53l0x_platform.c ****         Status = VL53L0X_ERROR_CONTROL_INTERFACE;
 861              		.loc 1 212 0
 862 0028 EC23     		movs	r3, #236
 863 002a FB75     		strb	r3, [r7, #23]
 213:Drivers/VL53L0X/Platform/vl53l0x_platform.c ****         goto done;
 864              		.loc 1 213 0
 865 002c 1BE0     		b	.L47
 866              	.L46:
 214:Drivers/VL53L0X/Platform/vl53l0x_platform.c ****     }
 215:Drivers/VL53L0X/Platform/vl53l0x_platform.c ****     status_int = _I2CRead(Dev, _I2CBuffer, 4);
 867              		.loc 1 215 0
 868 002e F868     		ldr	r0, [r7, #12]
 869 0030 1049     		ldr	r1, .L50
 870 0032 0422     		movs	r2, #4
 871 0034 FFF7FEFF 		bl	_I2CRead
 872 0038 3861     		str	r0, [r7, #16]
 216:Drivers/VL53L0X/Platform/vl53l0x_platform.c ****     if (status_int != 0) {
 873              		.loc 1 216 0
 874 003a 3B69     		ldr	r3, [r7, #16]
 875 003c 002B     		cmp	r3, #0
 876 003e 02D0     		beq	.L48
 217:Drivers/VL53L0X/Platform/vl53l0x_platform.c ****         Status = VL53L0X_ERROR_CONTROL_INTERFACE;
 877              		.loc 1 217 0
 878 0040 EC23     		movs	r3, #236
 879 0042 FB75     		strb	r3, [r7, #23]
 218:Drivers/VL53L0X/Platform/vl53l0x_platform.c ****         goto done;
 880              		.loc 1 218 0
 881 0044 0FE0     		b	.L47
 882              	.L48:
 219:Drivers/VL53L0X/Platform/vl53l0x_platform.c ****     }
 220:Drivers/VL53L0X/Platform/vl53l0x_platform.c **** 
 221:Drivers/VL53L0X/Platform/vl53l0x_platform.c ****     *data = ((uint32_t)_I2CBuffer[0]<<24) + ((uint32_t)_I2CBuffer[1]<<16) + ((uint32_t)_I2CBuffer[2
 883              		.loc 1 221 0
ARM GAS  /tmp/ccxilnv6.s 			page 20


 884 0046 0B4B     		ldr	r3, .L50
 885 0048 1B78     		ldrb	r3, [r3]	@ zero_extendqisi2
 886 004a 1A06     		lsls	r2, r3, #24
 887 004c 094B     		ldr	r3, .L50
 888 004e 5B78     		ldrb	r3, [r3, #1]	@ zero_extendqisi2
 889 0050 1B04     		lsls	r3, r3, #16
 890 0052 1A44     		add	r2, r2, r3
 891 0054 074B     		ldr	r3, .L50
 892 0056 9B78     		ldrb	r3, [r3, #2]	@ zero_extendqisi2
 893 0058 1B02     		lsls	r3, r3, #8
 894 005a 1344     		add	r3, r3, r2
 895 005c 054A     		ldr	r2, .L50
 896 005e D278     		ldrb	r2, [r2, #3]	@ zero_extendqisi2
 897 0060 1A44     		add	r2, r2, r3
 898 0062 7B68     		ldr	r3, [r7, #4]
 899 0064 1A60     		str	r2, [r3]
 900              	.L47:
 222:Drivers/VL53L0X/Platform/vl53l0x_platform.c **** 
 223:Drivers/VL53L0X/Platform/vl53l0x_platform.c **** done:
 224:Drivers/VL53L0X/Platform/vl53l0x_platform.c ****     VL53L0X_PutI2cBus();
 225:Drivers/VL53L0X/Platform/vl53l0x_platform.c ****     return Status;
 901              		.loc 1 225 0
 902 0066 FB7D     		ldrb	r3, [r7, #23]	@ zero_extendqisi2
 903 0068 5BB2     		sxtb	r3, r3
 226:Drivers/VL53L0X/Platform/vl53l0x_platform.c **** }
 904              		.loc 1 226 0
 905 006a 1846     		mov	r0, r3
 906 006c 1837     		adds	r7, r7, #24
 907              	.LCFI53:
 908              		.cfi_def_cfa_offset 8
 909 006e BD46     		mov	sp, r7
 910              	.LCFI54:
 911              		.cfi_def_cfa_register 13
 912              		@ sp needed
 913 0070 80BD     		pop	{r7, pc}
 914              	.L51:
 915 0072 00BF     		.align	2
 916              	.L50:
 917 0074 00000000 		.word	_I2CBuffer
 918              		.cfi_endproc
 919              	.LFE133:
 921              		.section	.text.VL53L0X_PollingDelay,"ax",%progbits
 922              		.align	2
 923              		.global	VL53L0X_PollingDelay
 924              		.thumb
 925              		.thumb_func
 927              	VL53L0X_PollingDelay:
 928              	.LFB134:
 227:Drivers/VL53L0X/Platform/vl53l0x_platform.c **** 
 228:Drivers/VL53L0X/Platform/vl53l0x_platform.c **** VL53L0X_Error VL53L0X_PollingDelay(VL53L0X_DEV Dev) {
 929              		.loc 1 228 0
 930              		.cfi_startproc
 931              		@ args = 0, pretend = 0, frame = 16
 932              		@ frame_needed = 1, uses_anonymous_args = 0
 933 0000 80B5     		push	{r7, lr}
 934              	.LCFI55:
 935              		.cfi_def_cfa_offset 8
ARM GAS  /tmp/ccxilnv6.s 			page 21


 936              		.cfi_offset 7, -8
 937              		.cfi_offset 14, -4
 938 0002 84B0     		sub	sp, sp, #16
 939              	.LCFI56:
 940              		.cfi_def_cfa_offset 24
 941 0004 00AF     		add	r7, sp, #0
 942              	.LCFI57:
 943              		.cfi_def_cfa_register 7
 944 0006 7860     		str	r0, [r7, #4]
 229:Drivers/VL53L0X/Platform/vl53l0x_platform.c ****     VL53L0X_Error status = VL53L0X_ERROR_NONE;
 945              		.loc 1 229 0
 946 0008 0023     		movs	r3, #0
 947 000a FB73     		strb	r3, [r7, #15]
 230:Drivers/VL53L0X/Platform/vl53l0x_platform.c **** 
 231:Drivers/VL53L0X/Platform/vl53l0x_platform.c ****     // do nothing
 232:Drivers/VL53L0X/Platform/vl53l0x_platform.c ****     VL53L0X_OsDelay();
 948              		.loc 1 232 0
 949 000c 0220     		movs	r0, #2
 950 000e FFF7FEFF 		bl	HAL_Delay
 233:Drivers/VL53L0X/Platform/vl53l0x_platform.c ****     return status;
 951              		.loc 1 233 0
 952 0012 FB7B     		ldrb	r3, [r7, #15]	@ zero_extendqisi2
 953 0014 5BB2     		sxtb	r3, r3
 234:Drivers/VL53L0X/Platform/vl53l0x_platform.c **** }
 954              		.loc 1 234 0
 955 0016 1846     		mov	r0, r3
 956 0018 1037     		adds	r7, r7, #16
 957              	.LCFI58:
 958              		.cfi_def_cfa_offset 8
 959 001a BD46     		mov	sp, r7
 960              	.LCFI59:
 961              		.cfi_def_cfa_register 13
 962              		@ sp needed
 963 001c 80BD     		pop	{r7, pc}
 964              		.cfi_endproc
 965              	.LFE134:
 967 001e 00BF     		.text
 968              	.Letext0:
 969              		.file 2 "/usr/include/newlib/machine/_default_types.h"
 970              		.file 3 "/usr/include/newlib/sys/_stdint.h"
 971              		.file 4 "Drivers/VL53L0X/API/vl53l0x_types.h"
 972              		.file 5 "Drivers/VL53L0X/API/vl53l0x_device.h"
 973              		.file 6 "Drivers/VL53L0X/API/vl53l0x_def.h"
 974              		.file 7 "Drivers/CMSIS/Device/ST/STM32F3xx/Include/stm32f303x8.h"
 975              		.file 8 "Drivers/STM32F3xx_HAL_Driver/Inc/stm32f3xx_hal_def.h"
 976              		.file 9 "Drivers/STM32F3xx_HAL_Driver/Inc/stm32f3xx_hal_dma.h"
 977              		.file 10 "Drivers/STM32F3xx_HAL_Driver/Inc/stm32f3xx_hal_i2c.h"
 978              		.file 11 "Drivers/VL53L0X/Platform/vl53l0x_platform.h"
 979              		.file 12 "Drivers/CMSIS/Include/core_cm4.h"
ARM GAS  /tmp/ccxilnv6.s 			page 22

